target datalayout = "e-m:e-p270:32:32-p271:32:32-p272:64:64-i64:64-i128:128-f80:128-n8:16:32:64-S128"
target triple = "x86_64-pc-linux-gnu"

%struct.Point3D = type { [3 x float] }

; Function Attrs: mustprogress nounwind uwtable
define linkonce_odr noundef nonnull align 4 dereferenceable(4) ptr @_ZNK7Point3DIfEixEi(ptr noundef nonnull align 4 dereferenceable(12) %0, i32 noundef %1) #4 comdat align 2 {
  %3 = alloca ptr, align 8
  %4 = alloca i32, align 4
  store ptr %0, ptr %3, align 8
  store i32 %1, ptr %4, align 4
  %5 = load ptr, ptr %3, align 8
  %6 = getelementptr inbounds %struct.Point3D, ptr %5, i32 0, i32 0
  %7 = load i32, ptr %4, align 4
  %8 = sext i32 %7 to i64
  %9 = getelementptr inbounds [3 x float], ptr %6, i64 0, i64 %8
  ret ptr %9
}

; Function Attrs: mustprogress uwtable
define noundef zeroext i1 @_ZN6OctreeIfE7_IsZeroI7Point3DIfEEEbRKT_(ptr noundef nonnull align 4 dereferenceable(12) %0) #5 align 2 {
  %2 = alloca ptr, align 8
  store ptr %0, ptr %2, align 8
  %3 = load ptr, ptr %2, align 8
  %4 = call noundef nonnull align 4 dereferenceable(4) ptr @_ZNK7Point3DIfEixEi(ptr noundef nonnull align 4 dereferenceable(12) %3, i32 noundef 0)
  %5 = load float, ptr %4, align 4
  %6 = fcmp oeq float %5, 0.000000e+00
  br i1 %6, label %7, label %17

7:                                                ; preds = %1
  %8 = load ptr, ptr %2, align 8
  %9 = call noundef nonnull align 4 dereferenceable(4) ptr @_ZNK7Point3DIfEixEi(ptr noundef nonnull align 4 dereferenceable(12) %8, i32 noundef 1)
  %10 = load float, ptr %9, align 4
  %11 = fcmp oeq float %10, 0.000000e+00
  br i1 %11, label %12, label %17

12:                                               ; preds = %7
  %13 = load ptr, ptr %2, align 8
  %14 = call noundef nonnull align 4 dereferenceable(4) ptr @_ZNK7Point3DIfEixEi(ptr noundef nonnull align 4 dereferenceable(12) %13, i32 noundef 2)
  %15 = load float, ptr %14, align 4
  %16 = fcmp oeq float %15, 0.000000e+00
  br label %17

17:                                               ; preds = %12, %7, %1
  %18 = phi i1 [ false, %7 ], [ false, %1 ], [ %16, %12 ]
  ret i1 %18
}