; Function Attrs: mustprogress nofree norecurse nosync nounwind willreturn memory(argmem: read) uwtable
define noundef zeroext i1 @_ZN6OctreeIfE7_IsZeroI7Point3DIfEEEbRKT_(ptr nocapture noundef nonnull readonly align 4 dereferenceable(12) %0) local_unnamed_addr #16 align 2 {
  %2 = load float, ptr %0, align 4
  %3 = fcmp oeq float %2, 0.000000e+00
  %4 = getelementptr inbounds i8, ptr %0, i64 4
  %5 = load float, ptr %4, align 4
  %6 = fcmp oeq float %5, 0.000000e+00
  %or.cond = select i1 %3, i1 %6, i1 false
  br i1 %or.cond, label %7, label %11

7:                                                ; preds = %1
  %8 = getelementptr inbounds i8, ptr %0, i64 8
  %9 = load float, ptr %8, align 4
  %10 = fcmp oeq float %9, 0.000000e+00
  br label %11

11:                                               ; preds = %7, %1
  %12 = phi i1 [ false, %1 ], [ %10, %7 ]
  ret i1 %12
}